target datalayout = "e-m:e-p270:32:32-p271:32:32-p272:64:64-i64:64-i128:128-f80:128-n8:16:32:64-S128"
target triple = "x86_64-pc-linux-gnu"

%struct._packet_info = type { ptr, ptr, i32, i32, %struct.nstime_t, %struct.nstime_t, %struct.nstime_t, i8, ptr, ptr, ptr, ptr, %struct._address, %struct._address, %struct._address, %struct._address, %struct._address, %struct._address, i32, ptr, i8, [3 x i8], %struct.anon, i32, i32, i32, i32, ptr, i8, ptr, ptr, i16, i16, i32, i32, i16, i32, i32, ptr, ptr, ptr, i8, i8, i16, i16, i16, i32, i16, i16, ptr, ptr, ptr, ptr, ptr, i32, i32 }
%struct.nstime_t = type { i64, i32 }
%struct._address = type { i32, i32, ptr, ptr }
%struct.anon = type { i8, [3 x i8] }
%struct.tm = type { i32, i32, i32, i32, i32, i32, i32, i32, i32, i64, ptr }

@hf_nas_eps_spare_bits = internal global i32 0, align 4
@hf_nas_eps_emm_ciph_key_data_ciphering_set_id = internal global i32 0, align 4
@hf_nas_eps_emm_ciph_key_data_ciphering_key = internal global i32 0, align 4
@hf_nas_eps_emm_ciph_key_data_c0_len = internal global i32 0, align 4
@hf_nas_eps_emm_ciph_key_data_c0 = internal global i32 0, align 4
@hf_nas_eps_emm_ciph_key_data_validity_start_time = internal global i32 0, align 4
@hf_nas_eps_emm_ciph_key_data_validity_duration = internal global i32 0, align 4
@hf_nas_eps_emm_ciph_key_data_tais_list_len = internal global i32 0, align 4
@ett_nas_eps_ciph_data_set = internal global i32 0, align 4
@.str.986 = private unnamed_addr constant [3 x i8] c"%s\00", align 1
@de_emm_ciph_key_data.flags4 = internal constant [4 x ptr] [ptr @hf_nas_eps_emm_ciph_key_data_pos_sib_type_2_18, ptr @hf_nas_eps_emm_ciph_key_data_pos_sib_type_2_19, ptr @hf_nas_eps_emm_ciph_key_data_pos_sib_type_3_1, ptr null], align 16
@.str.1025 = private unnamed_addr constant [23 x i8] c"Ciphering data set #%u\00", align 1

; Function Attrs: null_pointer_is_valid sspstrong uwtable
define internal zeroext i16 @de_emm_ciph_key_data(ptr noundef %0, ptr noundef %1, ptr noundef %2, i32 noundef %3, i32 noundef %4, ptr noundef %5, i32 noundef %6) #1 {
  %8 = alloca ptr, align 8
  %9 = alloca ptr, align 8
  %10 = alloca ptr, align 8
  %11 = alloca i32, align 4
  %12 = alloca i32, align 4
  %13 = alloca ptr, align 8
  %14 = alloca i32, align 4
  %15 = alloca i32, align 4
  %16 = alloca i32, align 4
  %17 = alloca i32, align 4
  %18 = alloca i32, align 4
  %19 = alloca i32, align 4
  %20 = alloca i8, align 1
  %21 = alloca %struct.tm, align 8
  %22 = alloca %struct.nstime_t, align 8
  %23 = alloca ptr, align 8
  %24 = alloca ptr, align 8
  store ptr %0, ptr %8, align 8
  store ptr %1, ptr %9, align 8
  store ptr %2, ptr %10, align 8
  store i32 %3, ptr %11, align 4
  store i32 %4, ptr %12, align 4
  store ptr %5, ptr %13, align 8
  store i32 %6, ptr %14, align 4
  call void @llvm.lifetime.start.p0(i64 4, ptr %15) #10
  call void @llvm.lifetime.start.p0(i64 4, ptr %16) #10
  %25 = load i32, ptr %11, align 4
  store i32 %25, ptr %16, align 4
  call void @llvm.lifetime.start.p0(i64 4, ptr %17) #10
  call void @llvm.lifetime.start.p0(i64 4, ptr %18) #10
  call void @llvm.lifetime.start.p0(i64 4, ptr %19) #10
  store i32 1, ptr %19, align 4
  call void @llvm.lifetime.start.p0(i64 1, ptr %20) #10
  call void @llvm.lifetime.start.p0(i64 56, ptr %21) #10
  call void @llvm.lifetime.start.p0(i64 16, ptr %22) #10
  call void @llvm.lifetime.start.p0(i64 8, ptr %23) #10
  call void @llvm.lifetime.start.p0(i64 8, ptr %24) #10
  br label %26

26:                                               ; preds = %216, %7
  %27 = load i32, ptr %16, align 4
  %28 = load i32, ptr %11, align 4
  %29 = sub i32 %27, %28
  %30 = load i32, ptr %12, align 4
  %31 = icmp ult i32 %29, %30
  br i1 %31, label %32, label %221

32:                                               ; preds = %26
  %33 = load i32, ptr %16, align 4
  store i32 %33, ptr %15, align 4
  %34 = load ptr, ptr %9, align 8
  %35 = load ptr, ptr %8, align 8
  %36 = load i32, ptr %16, align 4
  %37 = load i32, ptr @ett_nas_eps_ciph_data_set, align 4
  %38 = load i32, ptr %19, align 4
  %39 = add i32 %38, 1
  store i32 %39, ptr %19, align 4
  %40 = call ptr (ptr, ptr, i32, i32, i32, ptr, ptr, ...) @proto_tree_add_subtree_format(ptr noundef %34, ptr noundef %35, i32 noundef %36, i32 noundef -1, i32 noundef %37, ptr noundef %23, ptr noundef @.str.1025, i32 noundef %38)
  store ptr %40, ptr %24, align 8
  %41 = load ptr, ptr %24, align 8
  %42 = load i32, ptr @hf_nas_eps_emm_ciph_key_data_ciphering_set_id, align 4
  %43 = load ptr, ptr %8, align 8
  %44 = load i32, ptr %16, align 4
  %45 = call ptr @proto_tree_add_item(ptr noundef %41, i32 noundef %42, ptr noundef %43, i32 noundef %44, i32 noundef 2, i32 noundef 0)
  %46 = load i32, ptr %16, align 4
  %47 = add i32 %46, 2
  store i32 %47, ptr %16, align 4
  %48 = load ptr, ptr %24, align 8
  %49 = load i32, ptr @hf_nas_eps_emm_ciph_key_data_ciphering_key, align 4
  %50 = load ptr, ptr %8, align 8
  %51 = load i32, ptr %16, align 4
  %52 = call ptr @proto_tree_add_item(ptr noundef %48, i32 noundef %49, ptr noundef %50, i32 noundef %51, i32 noundef 16, i32 noundef 0)
  %53 = load i32, ptr %16, align 4
  %54 = add i32 %53, 16
  store i32 %54, ptr %16, align 4
  %55 = load ptr, ptr %24, align 8
  %56 = load i32, ptr @hf_nas_eps_spare_bits, align 4
  %57 = load ptr, ptr %8, align 8
  %58 = load i32, ptr %11, align 4
  %59 = shl i32 %58, 3
  %60 = call ptr @proto_tree_add_bits_item(ptr noundef %55, i32 noundef %56, ptr noundef %57, i32 noundef %59, i32 noundef 3, i32 noundef 0)
  %61 = load ptr, ptr %24, align 8
  %62 = load i32, ptr @hf_nas_eps_emm_ciph_key_data_c0_len, align 4
  %63 = load ptr, ptr %8, align 8
  %64 = load i32, ptr %16, align 4
  %65 = call ptr @proto_tree_add_item_ret_uint(ptr noundef %61, i32 noundef %62, ptr noundef %63, i32 noundef %64, i32 noundef 1, i32 noundef 0, ptr noundef %17)
  %66 = load i32, ptr %16, align 4
  %67 = add i32 %66, 1
  store i32 %67, ptr %16, align 4
  %68 = load i32, ptr %17, align 4
  %69 = icmp ne i32 %68, 0
  br i1 %69, label %70, label %80

70:                                               ; preds = %32
  %71 = load ptr, ptr %24, align 8
  %72 = load i32, ptr @hf_nas_eps_emm_ciph_key_data_c0, align 4
  %73 = load ptr, ptr %8, align 8
  %74 = load i32, ptr %16, align 4
  %75 = load i32, ptr %17, align 4
  %76 = call ptr @proto_tree_add_item(ptr noundef %71, i32 noundef %72, ptr noundef %73, i32 noundef %74, i32 noundef %75, i32 noundef 0)
  %77 = load i32, ptr %17, align 4
  %78 = load i32, ptr %16, align 4
  %79 = add i32 %78, %77
  store i32 %79, ptr %16, align 4
  br label %80

80:                                               ; preds = %70, %32
  %81 = load ptr, ptr %24, align 8
  %82 = load ptr, ptr %8, align 8
  %83 = load i32, ptr %16, align 4
  call void @proto_tree_add_bitmask_list(ptr noundef %81, ptr noundef %82, i32 noundef %83, i32 noundef 1, ptr noundef @de_emm_ciph_key_data.flags1, i32 noundef 0)
  %84 = load i32, ptr %16, align 4
  %85 = add i32 %84, 1
  store i32 %85, ptr %16, align 4
  %86 = load ptr, ptr %24, align 8
  %87 = load ptr, ptr %8, align 8
  %88 = load i32, ptr %16, align 4
  call void @proto_tree_add_bitmask_list(ptr noundef %86, ptr noundef %87, i32 noundef %88, i32 noundef 1, ptr noundef @de_emm_ciph_key_data.flags2, i32 noundef 0)
  %89 = load i32, ptr %16, align 4
  %90 = add i32 %89, 1
  store i32 %90, ptr %16, align 4
  %91 = load ptr, ptr %24, align 8
  %92 = load ptr, ptr %8, align 8
  %93 = load i32, ptr %16, align 4
  call void @proto_tree_add_bitmask_list(ptr noundef %91, ptr noundef %92, i32 noundef %93, i32 noundef 1, ptr noundef @de_emm_ciph_key_data.flags3, i32 noundef 0)
  %94 = load i32, ptr %16, align 4
  %95 = add i32 %94, 1
  store i32 %95, ptr %16, align 4
  %96 = load ptr, ptr %24, align 8
  %97 = load ptr, ptr %8, align 8
  %98 = load i32, ptr %16, align 4
  call void @proto_tree_add_bitmask_list(ptr noundef %96, ptr noundef %97, i32 noundef %98, i32 noundef 1, ptr noundef @de_emm_ciph_key_data.flags4, i32 noundef 0)
  %99 = load i32, ptr %16, align 4
  %100 = add i32 %99, 1
  store i32 %100, ptr %16, align 4
  %101 = getelementptr inbounds nuw %struct.tm, ptr %21, i32 0, i32 6
  store i32 0, ptr %101, align 8
  %102 = getelementptr inbounds nuw %struct.tm, ptr %21, i32 0, i32 7
  store i32 0, ptr %102, align 4
  %103 = getelementptr inbounds nuw %struct.tm, ptr %21, i32 0, i32 8
  store i32 -1, ptr %103, align 8
  %104 = load ptr, ptr %8, align 8
  %105 = load i32, ptr %16, align 4
  %106 = call zeroext i8 @tvb_get_uint8(ptr noundef %104, i32 noundef %105)
  store i8 %106, ptr %20, align 1
  %107 = load i8, ptr %20, align 1
  %108 = zext i8 %107 to i32
  %109 = and i32 %108, 15
  %110 = mul i32 %109, 10
  %111 = load i8, ptr %20, align 1
  %112 = zext i8 %111 to i32
  %113 = and i32 %112, 240
  %114 = ashr i32 %113, 4
  %115 = add i32 %110, %114
  %116 = add i32 %115, 100
  %117 = getelementptr inbounds nuw %struct.tm, ptr %21, i32 0, i32 5
  store i32 %116, ptr %117, align 4
  %118 = load ptr, ptr %8, align 8
  %119 = load i32, ptr %16, align 4
  %120 = add i32 %119, 1
  %121 = call zeroext i8 @tvb_get_uint8(ptr noundef %118, i32 noundef %120)
  store i8 %121, ptr %20, align 1
  %122 = load i8, ptr %20, align 1
  %123 = zext i8 %122 to i32
  %124 = and i32 %123, 15
  %125 = mul i32 %124, 10
  %126 = load i8, ptr %20, align 1
  %127 = zext i8 %126 to i32
  %128 = and i32 %127, 240
  %129 = ashr i32 %128, 4
  %130 = add i32 %125, %129
  %131 = sub i32 %130, 1
  %132 = getelementptr inbounds nuw %struct.tm, ptr %21, i32 0, i32 4
  store i32 %131, ptr %132, align 8
  %133 = load ptr, ptr %8, align 8
  %134 = load i32, ptr %16, align 4
  %135 = add i32 %134, 2
  %136 = call zeroext i8 @tvb_get_uint8(ptr noundef %133, i32 noundef %135)
  store i8 %136, ptr %20, align 1
  %137 = load i8, ptr %20, align 1
  %138 = zext i8 %137 to i32
  %139 = and i32 %138, 15
  %140 = mul i32 %139, 10
  %141 = load i8, ptr %20, align 1
  %142 = zext i8 %141 to i32
  %143 = and i32 %142, 240
  %144 = ashr i32 %143, 4
  %145 = add i32 %140, %144
  %146 = getelementptr inbounds nuw %struct.tm, ptr %21, i32 0, i32 3
  store i32 %145, ptr %146, align 4
  %147 = load ptr, ptr %8, align 8
  %148 = load i32, ptr %16, align 4
  %149 = add i32 %148, 3
  %150 = call zeroext i8 @tvb_get_uint8(ptr noundef %147, i32 noundef %149)
  store i8 %150, ptr %20, align 1
  %151 = load i8, ptr %20, align 1
  %152 = zext i8 %151 to i32
  %153 = and i32 %152, 15
  %154 = mul i32 %153, 10
  %155 = load i8, ptr %20, align 1
  %156 = zext i8 %155 to i32
  %157 = and i32 %156, 240
  %158 = ashr i32 %157, 4
  %159 = add i32 %154, %158
  %160 = getelementptr inbounds nuw %struct.tm, ptr %21, i32 0, i32 2
  store i32 %159, ptr %160, align 8
  %161 = load ptr, ptr %8, align 8
  %162 = load i32, ptr %16, align 4
  %163 = add i32 %162, 4
  %164 = call zeroext i8 @tvb_get_uint8(ptr noundef %161, i32 noundef %163)
  store i8 %164, ptr %20, align 1
  %165 = load i8, ptr %20, align 1
  %166 = zext i8 %165 to i32
  %167 = and i32 %166, 15
  %168 = mul i32 %167, 10
  %169 = load i8, ptr %20, align 1
  %170 = zext i8 %169 to i32
  %171 = and i32 %170, 240
  %172 = ashr i32 %171, 4
  %173 = add i32 %168, %172
  %174 = getelementptr inbounds nuw %struct.tm, ptr %21, i32 0, i32 1
  store i32 %173, ptr %174, align 4
  %175 = getelementptr inbounds nuw %struct.tm, ptr %21, i32 0, i32 0
  store i32 0, ptr %175, align 8
  %176 = call i64 @mktime(ptr noundef %21) #10
  %177 = getelementptr inbounds nuw %struct.nstime_t, ptr %22, i32 0, i32 0
  store i64 %176, ptr %177, align 8
  %178 = getelementptr inbounds nuw %struct.nstime_t, ptr %22, i32 0, i32 1
  store i32 0, ptr %178, align 8
  %179 = load ptr, ptr %24, align 8
  %180 = load i32, ptr @hf_nas_eps_emm_ciph_key_data_validity_start_time, align 4
  %181 = load ptr, ptr %8, align 8
  %182 = load i32, ptr %16, align 4
  %183 = load ptr, ptr %10, align 8
  %184 = getelementptr inbounds nuw %struct._packet_info, ptr %183, i32 0, i32 51
  %185 = load ptr, ptr %184, align 8
  %186 = call ptr @abs_time_to_str_ex(ptr noundef %185, ptr noundef %22, i32 noundef 18, i32 noundef 0)
  %187 = call ptr (ptr, i32, ptr, i32, i32, ptr, ptr, ...) @proto_tree_add_time_format_value(ptr noundef %179, i32 noundef %180, ptr noundef %181, i32 noundef %182, i32 noundef 5, ptr noundef %22, ptr noundef @.str.986, ptr noundef %186)
  %188 = load i32, ptr %16, align 4
  %189 = add i32 %188, 5
  store i32 %189, ptr %16, align 4
  %190 = load ptr, ptr %24, align 8
  %191 = load i32, ptr @hf_nas_eps_emm_ciph_key_data_validity_duration, align 4
  %192 = load ptr, ptr %8, align 8
  %193 = load i32, ptr %16, align 4
  %194 = call ptr @proto_tree_add_item(ptr noundef %190, i32 noundef %191, ptr noundef %192, i32 noundef %193, i32 noundef 2, i32 noundef 0)
  %195 = load i32, ptr %16, align 4
  %196 = add i32 %195, 2
  store i32 %196, ptr %16, align 4
  %197 = load ptr, ptr %24, align 8
  %198 = load i32, ptr @hf_nas_eps_emm_ciph_key_data_tais_list_len, align 4
  %199 = load ptr, ptr %8, align 8
  %200 = load i32, ptr %16, align 4
  %201 = call ptr @proto_tree_add_item_ret_uint(ptr noundef %197, i32 noundef %198, ptr noundef %199, i32 noundef %200, i32 noundef 1, i32 noundef 0, ptr noundef %18)
  %202 = load i32, ptr %16, align 4
  %203 = add i32 %202, 1
  store i32 %203, ptr %16, align 4
  %204 = load i32, ptr %18, align 4
  %205 = icmp ne i32 %204, 0
  br i1 %205, label %206, label %216

206:                                              ; preds = %80
  %207 = load ptr, ptr %8, align 8
  %208 = load ptr, ptr %24, align 8
  %209 = load ptr, ptr %10, align 8
  %210 = load i32, ptr %16, align 4
  %211 = load i32, ptr %18, align 4
  %212 = call zeroext i16 @de_emm_trac_area_id_lst(ptr noundef %207, ptr noundef %208, ptr noundef %209, i32 noundef %210, i32 noundef %211, ptr noundef null, i32 noundef 0)
  %213 = load i32, ptr %18, align 4
  %214 = load i32, ptr %16, align 4
  %215 = add i32 %214, %213
  store i32 %215, ptr %16, align 4
  br label %216

216:                                              ; preds = %206, %80
  %217 = load ptr, ptr %23, align 8
  %218 = load i32, ptr %16, align 4
  %219 = load i32, ptr %15, align 4
  %220 = sub i32 %218, %219
  call void @proto_item_set_len(ptr noundef %217, i32 noundef %220)
  br label %26, !llvm.loop !13

221:                                              ; preds = %26
  %222 = load i32, ptr %12, align 4
  %223 = trunc i32 %222 to i16
  call void @llvm.lifetime.end.p0(i64 8, ptr %24) #10
  call void @llvm.lifetime.end.p0(i64 8, ptr %23) #10
  call void @llvm.lifetime.end.p0(i64 16, ptr %22) #10
  call void @llvm.lifetime.end.p0(i64 56, ptr %21) #10
  call void @llvm.lifetime.end.p0(i64 1, ptr %20) #10
  call void @llvm.lifetime.end.p0(i64 4, ptr %19) #10
  call void @llvm.lifetime.end.p0(i64 4, ptr %18) #10
  call void @llvm.lifetime.end.p0(i64 4, ptr %17) #10
  call void @llvm.lifetime.end.p0(i64 4, ptr %16) #10
  call void @llvm.lifetime.end.p0(i64 4, ptr %15) #10
  ret i16 %223
}